(dp1
S'eqnstar'
p2
I00
sS'latexdict'
p3
(dp4
S'latexout'
p5
V/home/ryan/git/report_generation/examples/texpy_example_out.pdf
p6
sS'autoopen'
p7
I00
sS'dvi'
p8
I00
sS'latexin'
p9
V/home/ryan/git/report_generation/examples/texpy_example_out.tex
p10
ssS'echo'
p11
I00
sS'usefancyhdr'
p12
I01
sS'savenh'
p13
I00
sS'answer'
p14
I00
sS'path'
p15
V/home/ryan/git/report_generation/examples/texpy_example.tex
p16
s.